(dp0
VDeepanshu2014Dt
p1
cnumpy.core.multiarray
scalar
p2
(cnumpy
dtype
p3
(S'f8'
p4
I0
I1
tp5
Rp6
(I3
S'<'
p7
NNNI-1
I-1
I0
tp8
bS'\x84\xc1\xf9\x92\x9e\xd6\x8c?'
p9
tp10
Rp11
sVSamarthsetia
p12
g2
(g6
S'\x08\x04\x02\x81@ \x80?'
p13
tp14
Rp15
sVaditya_prasun
p16
g2
(g6
S'\xab?\xd9\x95wq\x80?'
p17
tp18
Rp19
s.