(lp0
(ccopy_reg
_reconstructor
p1
(cnetworkx.classes.graph
Graph
p2
c__builtin__
object
p3
Ntp4
Rp5
(dp6
S'node'
p7
(dp8
VDeepanshu2014Dt
p9
(dp10
S'choice'
p11
S'A'
p12
sS'payoff'
p13
cnumpy.core.multiarray
scalar
p14
(cnumpy
dtype
p15
(S'f8'
p16
I0
I1
tp17
Rp18
(I3
S'<'
p19
NNNI-1
I-1
I0
tp20
bS'\xb3\x14a\xe05n\xca?'
p21
tp22
Rp23
ssVaditya_prasun
p24
(dp25
g11
S'B'
p26
sg13
g14
(g18
S'\xbe\xfb\x88\xc8\x90)\xc0?'
p27
tp28
Rp29
ssVanshusr94
p30
(dp31
g11
g26
sg13
g14
(g18
S'\xff\xce\x87Oe\x0b\xdb?'
p32
tp33
Rp34
ssVkulbeer_sidhu
p35
(dp36
g11
g12
sg13
g14
(g18
S'\x13\xdd0\xcd\xe7\x1e\xbb?'
p37
tp38
Rp39
ssVnishant_167
p40
(dp41
g11
g26
sg13
g14
(g18
S'#k\x01$\xc7[\xd3?'
p42
tp43
Rp44
ssVkulllshubh
p45
(dp46
g11
g12
sg13
g14
(g18
S'h\xfd\xf5\x865\xb7\xd0?'
p47
tp48
Rp49
ssVrjschamp
p50
(dp51
g11
g26
sg13
g14
(g18
S'W\xdb\x0e\xda\x89\x1d\xd2?'
p52
tp53
Rp54
ssVFunnyoneliners
p55
(dp56
g11
g12
sg13
g14
(g18
S'\x97*\xe4\x89\x91\x8f\xc9?'
p57
tp58
Rp59
ssVmanishjha_
p60
(dp61
g11
g12
sg13
g14
(g18
S'%]\x9f\x99\xf4\x92\xca?'
p62
tp63
Rp64
ssVDracodos
p65
(dp66
g11
g12
sg13
g14
(g18
S'=\xab\x16c\xadz\xe1?'
p67
tp68
Rp69
ssVpk_ishere
p70
(dp71
g11
g26
sg13
g14
(g18
S'\xce\x0c\x13]N\xc3\xc0?'
p72
tp73
Rp74
ssVRaven_krishna
p75
(dp76
g11
g12
sg13
g14
(g18
S'#\xa0\xa8*\x15%\xd9?'
p77
tp78
Rp79
ssVmohanakrishna62
p80
(dp81
g11
g26
sg13
g14
(g18
S'\x9e\xe7\\m\xdd(\xd3?'
p82
tp83
Rp84
ssVsapan_u
p85
(dp86
g11
g12
sg13
g14
(g18
S'X\x14)\x9f\xf8\xa1\xbf?'
p87
tp88
Rp89
ssVcoolnitesh09
p90
(dp91
g11
g12
sg13
g14
(g18
S'\xc0\x9ez\xf0f~\xcc?'
p92
tp93
Rp94
ssVTheTeKKI
p95
(dp96
g11
g12
sg13
g14
(g18
S'\x99o\xb7\xc8\x8d\xf3\xc5?'
p97
tp98
Rp99
ssVVineetMshr
p100
(dp101
g11
g12
sg13
g14
(g18
S'W\xe7\xefEtG\xda?'
p102
tp103
Rp104
ssVVibhoreAgarwal1
p105
(dp106
g11
g12
sg13
g14
(g18
S'\x15\t\xb9\xd9\xae\xf5\xcd?'
p107
tp108
Rp109
ssVmanoharvvgolla
p110
(dp111
g11
g12
sg13
g14
(g18
S'\x1a\x1d\x9c\xdd\xbe\x1b\xd1?'
p112
tp113
Rp114
ssVShiwani14393
p115
(dp116
g11
g12
sg13
g14
(g18
S'D\xc7i"\xdc{\xde?'
p117
tp118
Rp119
ssVshkkonda
p120
(dp121
g11
g12
sg13
g14
(g18
S'\xf8\x1a\x95\xad:\xd5\xd0?'
p122
tp123
Rp124
ssVjainurag
p125
(dp126
g11
g26
sg13
g14
(g18
S')9\xbe\xa2\xd4\xda\xd4?'
p127
tp128
Rp129
sssS'edge'
p130
(dp131
g9
(dp132
g90
(dp133
sg40
(dp134
sg24
(dp135
sg105
(dp136
sg110
(dp137
sg85
(dp138
sg115
(dp139
sg60
(dp140
sg120
(dp141
ssg24
(dp142
g9
g135
sg40
(dp143
sg30
(dp144
sg80
(dp145
sg105
(dp146
sg50
(dp147
sg85
(dp148
sg125
(dp149
ssg30
(dp150
Vaditya_prasun
p151
g144
ssg35
(dp152
g100
(dp153
sg45
(dp154
sg105
(dp155
sg85
(dp156
sg115
(dp157
sg60
(dp158
sg120
(dp159
ssg40
(dp160
g50
(dp161
sg9
g134
sg70
(dp162
sVaditya_prasun
p163
g143
ssg45
(dp164
g60
(dp165
sg110
(dp166
sg85
(dp167
sVkulbeer_sidhu
p168
g154
ssg50
(dp169
g151
g147
sVnishant_167
p170
g161
ssg55
(dp171
g60
(dp172
sg85
(dp173
sg100
(dp174
ssg60
(dp175
g9
g140
sg90
(dp176
sg45
g165
sg105
(dp177
sg110
(dp178
sg85
(dp179
sVkulbeer_sidhu
p180
g158
sVFunnyoneliners
p181
g172
sg120
(dp182
sg115
(dp183
ssg65
(dp184
g90
(dp185
ssg70
(dp186
Vnishant_167
p187
g162
ssg75
(dp188
g105
(dp189
sg120
(dp190
ssg80
(dp191
g110
(dp192
sVaditya_prasun
p193
g145
ssg85
(dp194
g9
g138
sg151
g148
sg45
g167
sg95
(dp195
sg105
(dp196
sg110
(dp197
sVkulbeer_sidhu
p198
g156
sg55
g173
sVmanishjha_
p199
g179
sg120
(dp200
sg90
(dp201
sg115
(dp202
ssg90
(dp203
g9
g133
sg105
(dp204
sg110
(dp205
sVsapan_u
p206
g201
sg115
(dp207
sVmanishjha_
p208
g176
sg120
(dp209
sg65
g185
sg125
(dp210
ssg95
(dp211
g206
g195
ssg100
(dp212
Vkulbeer_sidhu
p213
g153
sVFunnyoneliners
p214
g174
ssg105
(dp215
g9
g136
sVaditya_prasun
p216
g146
sg75
g189
sg110
(dp217
sVsapan_u
p218
g196
sg35
g155
sVmanishjha_
p219
g177
sg120
(dp220
sVcoolnitesh09
p221
g204
ssg110
(dp222
g9
g137
sVcoolnitesh09
p223
g205
sg45
g166
sg80
g192
sVVibhoreAgarwal1
p224
g217
sg206
g197
sg115
(dp225
sVmanishjha_
p226
g178
sg120
(dp227
ssg115
(dp228
g9
g139
sVcoolnitesh09
p229
g207
sVmanoharvvgolla
p230
g225
sg206
g202
sVkulbeer_sidhu
p231
g157
sVmanishjha_
p232
g183
sg120
(dp233
ssg120
(dp234
g9
g141
sg223
g209
sVRaven_krishna
p235
g190
sg224
g220
sVmanoharvvgolla
p236
g227
sg206
g200
sVkulbeer_sidhu
p237
g159
sVShiwani14393
p238
g233
sg208
g182
ssg125
(dp239
Vcoolnitesh09
p240
g210
sVaditya_prasun
p241
g149
sssS'node_dict_factory'
p242
c__builtin__
dict
p243
sS'graph'
p244
(dp245
sS'adjlist_dict_factory'
p246
g243
sS'adj'
p247
g131
sS'edge_attr_dict_factory'
p248
g243
sbI9
(lp249
g9
ag35
ag55
ag85
ag90
ag110
a(lp250
g45
ag65
ag95
ag100
ag115
ag60
ag120
ag105
ag75
atp251
a(g1
(g2
g3
Ntp252
Rp253
(dp254
g7
(dp255
VSamarthsetia
p256
(dp257
g11
g12
sg13
g14
(g18
S'\xffA\xf2\xe3\xe6@\xc2?'
p258
tp259
Rp260
ssVStraightFaces
p261
(dp262
g11
g12
sg13
g14
(g18
S'\xb1\xf5`.\x98|\xbe?'
p263
tp264
Rp265
ssVlimbicpoet
p266
(dp267
g11
g12
sg13
g14
(g18
S'R2\xeb\x82"\x8d\xca?'
p268
tp269
Rp270
ssVDrkLrdMistress
p271
(dp272
g11
g12
sg13
g14
(g18
S'\x98\xe3R\xf8\x1f@\xca?'
p273
tp274
Rp275
ssVNutterDiaries
p276
(dp277
g11
g12
sg13
g14
(g18
S'\xa5\x18Q\xb2Gv\xb9?'
p278
tp279
Rp280
ssVarjunsaxena55
p281
(dp282
g11
g12
sg13
g14
(g18
S"\xde\xae\x8f'\xc5\xd0\xd2?"
p283
tp284
Rp285
ssVbigbacontheory
p286
(dp287
g11
g12
sg13
g14
(g18
S'\xd8\xe3\xb1_AJ\xbd?'
p288
tp289
Rp290
sssg130
(dp291
g256
(dp292
g286
(dp293
ssg261
(dp294
g271
(dp295
sg281
(dp296
ssg266
(dp297
g286
(dp298
ssg271
(dp299
VStraightFaces
p300
g295
ssg276
(dp301
g281
(dp302
sg286
(dp303
ssg281
(dp304
g261
g296
sVNutterDiaries
p305
g302
ssg286
(dp306
g276
g303
sg266
g298
sg256
g293
sssg242
g243
sg244
(dp307
sg246
g243
sg247
g291
sg248
g243
sbI1
(lp308
g256
ag261
ag266
ag271
ag276
ag281
a(lp309
g286
atp310
a(g1
(g2
g3
Ntp311
Rp312
(dp313
g7
(dp314
g9
(dp315
g11
g12
sg13
g14
(g18
S'\xb3\x14a\xe05n\xca?'
p316
tp317
Rp318
ssg24
(dp319
g11
g26
sg13
g14
(g18
S'\xbe\xfb\x88\xc8\x90)\xc0?'
p320
tp321
Rp322
ssg30
(dp323
g11
g26
sg13
g14
(g18
S'\xff\xce\x87Oe\x0b\xdb?'
p324
tp325
Rp326
ssg35
(dp327
g11
g12
sg13
g14
(g18
S'\x13\xdd0\xcd\xe7\x1e\xbb?'
p328
tp329
Rp330
ssg40
(dp331
g11
g26
sg13
g14
(g18
S'#k\x01$\xc7[\xd3?'
p332
tp333
Rp334
ssg45
(dp335
g11
g12
sg13
g14
(g18
S'h\xfd\xf5\x865\xb7\xd0?'
p336
tp337
Rp338
ssg50
(dp339
g11
g26
sg13
g14
(g18
S'W\xdb\x0e\xda\x89\x1d\xd2?'
p340
tp341
Rp342
ssg55
(dp343
g11
g12
sg13
g14
(g18
S'\x97*\xe4\x89\x91\x8f\xc9?'
p344
tp345
Rp346
ssg60
(dp347
g11
g12
sg13
g14
(g18
S'%]\x9f\x99\xf4\x92\xca?'
p348
tp349
Rp350
ssg65
(dp351
g11
g12
sg13
g14
(g18
S'=\xab\x16c\xadz\xe1?'
p352
tp353
Rp354
ssg70
(dp355
g11
g26
sg13
g14
(g18
S'\xce\x0c\x13]N\xc3\xc0?'
p356
tp357
Rp358
ssg75
(dp359
g11
g12
sg13
g14
(g18
S'#\xa0\xa8*\x15%\xd9?'
p360
tp361
Rp362
ssg80
(dp363
g11
g26
sg13
g14
(g18
S'\x9e\xe7\\m\xdd(\xd3?'
p364
tp365
Rp366
ssg85
(dp367
g11
g12
sg13
g14
(g18
S'X\x14)\x9f\xf8\xa1\xbf?'
p368
tp369
Rp370
ssg90
(dp371
g11
g12
sg13
g14
(g18
S'\xc0\x9ez\xf0f~\xcc?'
p372
tp373
Rp374
ssg95
(dp375
g11
g12
sg13
g14
(g18
S'\x99o\xb7\xc8\x8d\xf3\xc5?'
p376
tp377
Rp378
ssg100
(dp379
g11
g12
sg13
g14
(g18
S'W\xe7\xefEtG\xda?'
p380
tp381
Rp382
ssg105
(dp383
g11
g12
sg13
g14
(g18
S'\x15\t\xb9\xd9\xae\xf5\xcd?'
p384
tp385
Rp386
ssg110
(dp387
g11
g12
sg13
g14
(g18
S'\x1a\x1d\x9c\xdd\xbe\x1b\xd1?'
p388
tp389
Rp390
ssg115
(dp391
g11
g12
sg13
g14
(g18
S'D\xc7i"\xdc{\xde?'
p392
tp393
Rp394
ssg120
(dp395
g11
g12
sg13
g14
(g18
S'\xf8\x1a\x95\xad:\xd5\xd0?'
p396
tp397
Rp398
ssg125
(dp399
g11
g26
sg13
g14
(g18
S')9\xbe\xa2\xd4\xda\xd4?'
p400
tp401
Rp402
sssg130
(dp403
g9
(dp404
g90
(dp405
sg40
(dp406
sg24
(dp407
sg105
(dp408
sg110
(dp409
sg85
(dp410
sg115
(dp411
sg60
(dp412
sg120
(dp413
ssg24
(dp414
g9
g407
sg40
(dp415
sg30
(dp416
sg80
(dp417
sg105
(dp418
sg50
(dp419
sg85
(dp420
sg125
(dp421
ssg30
(dp422
g151
g416
ssg35
(dp423
g100
(dp424
sg45
(dp425
sg105
(dp426
sg85
(dp427
sg115
(dp428
sg60
(dp429
sg120
(dp430
ssg40
(dp431
g50
(dp432
sg9
g406
sg70
(dp433
sg163
g415
ssg45
(dp434
g60
(dp435
sg110
(dp436
sg85
(dp437
sg168
g425
ssg50
(dp438
g151
g419
sg170
g432
ssg55
(dp439
g60
(dp440
sg85
(dp441
sg100
(dp442
ssg60
(dp443
g9
g412
sg90
(dp444
sg45
g435
sg105
(dp445
sg110
(dp446
sg85
(dp447
sg180
g429
sg181
g440
sg120
(dp448
sg115
(dp449
ssg65
(dp450
g90
(dp451
ssg70
(dp452
g187
g433
ssg75
(dp453
g105
(dp454
sg120
(dp455
ssg80
(dp456
g110
(dp457
sg193
g417
ssg85
(dp458
g9
g410
sg151
g420
sg45
g437
sg95
(dp459
sg105
(dp460
sg110
(dp461
sg198
g427
sg55
g441
sg199
g447
sg120
(dp462
sg90
(dp463
sg115
(dp464
ssg90
(dp465
g9
g405
sg105
(dp466
sg110
(dp467
sg206
g463
sg115
(dp468
sg208
g444
sg120
(dp469
sg65
g451
sg125
(dp470
ssg95
(dp471
g206
g459
ssg100
(dp472
g213
g424
sg214
g442
ssg105
(dp473
g9
g408
sg216
g418
sg75
g454
sg110
(dp474
sg218
g460
sg35
g426
sg219
g445
sg120
(dp475
sg221
g466
ssg110
(dp476
g9
g409
sg223
g467
sg45
g436
sg80
g457
sg224
g474
sg206
g461
sg115
(dp477
sg226
g446
sg120
(dp478
ssg115
(dp479
g9
g411
sg229
g468
sg230
g477
sg206
g464
sg231
g428
sg232
g449
sg120
(dp480
ssg120
(dp481
g9
g413
sg223
g469
sg235
g455
sg224
g475
sg236
g478
sg206
g462
sg237
g430
sg238
g480
sg208
g448
ssg125
(dp482
g240
g470
sg241
g421
sssg242
g243
sg244
(dp483
sg246
g243
sg247
g403
sg248
g243
sbI9
(lp484
g9
ag35
ag55
ag85
ag90
ag110
a(lp485
g45
ag65
ag95
ag100
ag115
ag60
ag120
ag105
ag75
atp486
a(g1
(g2
g3
Ntp487
Rp488
(dp489
g7
(dp490
g256
(dp491
g11
g12
sg13
g14
(g18
S'\xffA\xf2\xe3\xe6@\xc2?'
p492
tp493
Rp494
ssg261
(dp495
g11
g12
sg13
g14
(g18
S'\xb1\xf5`.\x98|\xbe?'
p496
tp497
Rp498
ssg266
(dp499
g11
g12
sg13
g14
(g18
S'R2\xeb\x82"\x8d\xca?'
p500
tp501
Rp502
ssg271
(dp503
g11
g12
sg13
g14
(g18
S'\x98\xe3R\xf8\x1f@\xca?'
p504
tp505
Rp506
ssg276
(dp507
g11
g12
sg13
g14
(g18
S'\xa5\x18Q\xb2Gv\xb9?'
p508
tp509
Rp510
ssg281
(dp511
g11
g12
sg13
g14
(g18
S"\xde\xae\x8f'\xc5\xd0\xd2?"
p512
tp513
Rp514
ssg286
(dp515
g11
g12
sg13
g14
(g18
S'\xd8\xe3\xb1_AJ\xbd?'
p516
tp517
Rp518
sssg130
(dp519
g256
(dp520
g286
(dp521
ssg261
(dp522
g271
(dp523
sg281
(dp524
ssg266
(dp525
g286
(dp526
ssg271
(dp527
g300
g523
ssg276
(dp528
g281
(dp529
sg286
(dp530
ssg281
(dp531
g261
g524
sg305
g529
ssg286
(dp532
g276
g530
sg266
g526
sg256
g521
sssg242
g243
sg244
(dp533
sg246
g243
sg247
g519
sg248
g243
sbI1
(lp534
g256
ag261
ag266
ag271
ag276
ag281
a(lp535
g286
atp536
a.