(dp0
Vrjschamp
p1
cnumpy.core.multiarray
scalar
p2
(cnumpy
dtype
p3
(S'f8'
p4
I0
I1
tp5
Rp6
(I3
S'<'
p7
NNNI-1
I-1
I0
tp8
bS'W\xdb\x0e\xda\x89\x1d\xd2?'
p9
tp10
Rp11
sVDeepanshu2014Dt
p12
g2
(g6
S'\xb3\x14a\xe05n\xca?'
p13
tp14
Rp15
sVSamarthsetia
p16
g2
(g6
S'\xffA\xf2\xe3\xe6@\xc2?'
p17
tp18
Rp19
sVaditya_prasun
p20
g2
(g6
S'\xbe\xfb\x88\xc8\x90)\xc0?'
p21
tp22
Rp23
s.