(dp0
VSamarthsetia
p1
cnumpy.core.multiarray
scalar
p2
(cnumpy
dtype
p3
(S'f8'
p4
I0
I1
tp5
Rp6
(I3
S'<'
p7
NNNI-1
I-1
I0
tp8
bS'p\x9e5\x01\xe7Ys?'
p9
tp10
Rp11
sVaditya_prasun
p12
g2
(g6
S'\xdc\xb8\xb4\t\x03\xa4\x80?'
p13
tp14
Rp15
s.